; Function Attrs: mustprogress uwtable
define dso_local noundef i32 @_ZN22cmCTestMemCheckHandler17PreProcessHandlerEv(ptr noundef nonnull align 8 dereferenceable(4760) %0) unnamed_addr #3 align 2 personality ptr @__gxx_personality_v0 {
  %2 = alloca %"class.std::__cxx11::basic_ostringstream", align 8
  %3 = alloca %"class.std::__cxx11::basic_string", align 8
  %4 = tail call noundef zeroext i1 @_ZN22cmCTestMemCheckHandler24InitializeMemoryCheckingEv(ptr noundef nonnull align 8 dereferenceable(4760) %0)
  br i1 %4, label %5, label %23

5:                                                ; preds = %1
  %6 = getelementptr inbounds i8, ptr %0, i64 4712
  %7 = tail call noundef i32 @_ZN18cmCTestTestHandler15ExecuteCommandsERSt6vectorINSt7__cxx1112basic_stringIcSt11char_traitsIcESaIcEEESaIS6_EE(ptr noundef nonnull align 8 dereferenceable(4416) %0, ptr noundef nonnull align 8 dereferenceable(24) %6)
  %.not = icmp eq i32 %7, 0
  br i1 %.not, label %8, label %23

8:                                                ; preds = %5
  call void @_ZNSt7__cxx1119basic_ostringstreamIcSt11char_traitsIcESaIcEEC1Ev(ptr noundef nonnull align 8 dereferenceable(112) %2)
  %9 = invoke noundef nonnull align 8 dereferenceable(8) ptr @_ZStlsISt11char_traitsIcEERSt13basic_ostreamIcT_ES5_PKc(ptr noundef nonnull align 8 dereferenceable(8) %2, ptr noundef nonnull @.str)
          to label %10 unwind label %18

10:                                               ; preds = %8
  %11 = invoke noundef nonnull align 8 dereferenceable(8) ptr @_ZNSolsEPFRSoS_E(ptr noundef nonnull align 8 dereferenceable(8) %9, ptr noundef nonnull @_ZSt4endlIcSt11char_traitsIcEERSt13basic_ostreamIT_T0_ES6_)
          to label %12 unwind label %18

12:                                               ; preds = %10
  %13 = getelementptr inbounds i8, ptr %0, i64 32
  %14 = load ptr, ptr %13, align 8
  invoke void @_ZNKSt7__cxx1119basic_ostringstreamIcSt11char_traitsIcESaIcEE3strEv(ptr dead_on_unwind nonnull writable sret(%"class.std::__cxx11::basic_string") align 8 %3, ptr noundef nonnull align 8 dereferenceable(112) %2)
          to label %15 unwind label %18

15:                                               ; preds = %12
  %16 = call noundef ptr @_ZNKSt7__cxx1112basic_stringIcSt11char_traitsIcESaIcEE5c_strEv(ptr noundef nonnull align 8 dereferenceable(32) %3) #17
  invoke void @_ZN7cmCTest3LogEiPKciS1_b(ptr noundef nonnull align 8 dereferenceable(8) %14, i32 noundef 7, ptr noundef nonnull @.str.2, i32 noundef 151, ptr noundef %16, i1 noundef zeroext false)
          to label %17 unwind label %20

17:                                               ; preds = %15
  call void @_ZNSt7__cxx1112basic_stringIcSt11char_traitsIcESaIcEED1Ev(ptr noundef nonnull align 8 dereferenceable(32) %3) #17
  call void @_ZNSt7__cxx1119basic_ostringstreamIcSt11char_traitsIcESaIcEED1Ev(ptr noundef nonnull align 8 dereferenceable(112) %2) #17
  br label %23

18:                                               ; preds = %12, %10, %8
  %19 = landingpad { ptr, i32 }
          cleanup
  br label %22

20:                                               ; preds = %15
  %21 = landingpad { ptr, i32 }
          cleanup
  call void @_ZNSt7__cxx1112basic_stringIcSt11char_traitsIcESaIcEED1Ev(ptr noundef nonnull align 8 dereferenceable(32) %3) #17
  br label %22

22:                                               ; preds = %20, %18
  %.pn = phi { ptr, i32 } [ %21, %20 ], [ %19, %18 ]
  call void @_ZNSt7__cxx1119basic_ostringstreamIcSt11char_traitsIcESaIcEED1Ev(ptr noundef nonnull align 8 dereferenceable(112) %2) #17
  resume { ptr, i32 } %.pn

23:                                               ; preds = %5, %1, %17
  %.04 = phi i32 [ 0, %17 ], [ 0, %1 ], [ 1, %5 ]
  ret i32 %.04
}